target datalayout = "e-m:e-p270:32:32-p271:32:32-p272:64:64-i64:64-i128:128-f80:128-n8:16:32:64-S128"
target triple = "x86_64-pc-linux-gnu"

%struct.SDL_Haptic = type { i32, ptr, ptr, i32, i32, i32, i32, ptr, i32, i32, %union.SDL_HapticEffect, ptr }
%union.SDL_HapticEffect = type { %struct.SDL_HapticCustom, [16 x i8] }
%struct.SDL_HapticCustom = type { i16, %struct.SDL_HapticDirection, i32, i16, i16, i16, i8, i16, i16, ptr, i16, i16, i16, i16 }
%struct.SDL_HapticDirection = type { i8, [3 x i32] }
%struct.SDL_HapticPeriodic = type { i16, %struct.SDL_HapticDirection, i32, i16, i16, i16, i16, i16, i16, i16, i16, i16, i16, i16 }
%struct.SDL_HapticLeftRight = type { i16, i32, i16, i16 }

@.str = private unnamed_addr constant [26 x i8] c"Parameter '%s' is invalid\00", align 1
@.str.1 = private unnamed_addr constant [7 x i8] c"haptic\00", align 1
@.str.18 = private unnamed_addr constant [30 x i8] c"Device doesn't support rumble\00", align 1

; Function Attrs: nounwind uwtable
define hidden zeroext i1 @SDL_InitHapticRumble_REAL(ptr noundef %0) #0 {
  %2 = alloca i1, align 1
  %3 = alloca ptr, align 8
  %4 = alloca ptr, align 8
  %5 = alloca i32, align 4
  store ptr %0, ptr %3, align 8
  call void @llvm.lifetime.start.p0(i64 8, ptr %4) #7
  %6 = load ptr, ptr %3, align 8
  %7 = getelementptr inbounds nuw %struct.SDL_Haptic, ptr %6, i32 0, i32 10
  store ptr %7, ptr %4, align 8
  %8 = load ptr, ptr %3, align 8
  %9 = call zeroext i1 @SDL_ObjectValid(ptr noundef %8, i32 noundef 6)
  br i1 %9, label %12, label %10

10:                                               ; preds = %1
  %11 = call zeroext i1 (ptr, ...) @SDL_SetError_REAL(ptr noundef @.str, ptr noundef @.str.1)
  store i1 false, ptr %2, align 1
  store i32 1, ptr %5, align 4
  br label %70

12:                                               ; preds = %1
  %13 = load ptr, ptr %3, align 8
  %14 = getelementptr inbounds nuw %struct.SDL_Haptic, ptr %13, i32 0, i32 9
  %15 = load i32, ptr %14, align 4
  %16 = icmp sge i32 %15, 0
  br i1 %16, label %17, label %18

17:                                               ; preds = %12
  store i1 true, ptr %2, align 1
  store i32 1, ptr %5, align 4
  br label %70

18:                                               ; preds = %12
  %19 = load ptr, ptr %4, align 8
  call void @llvm.memset.p0.i64(ptr align 8 %19, i8 0, i64 72, i1 false)
  %20 = load ptr, ptr %3, align 8
  %21 = getelementptr inbounds nuw %struct.SDL_Haptic, ptr %20, i32 0, i32 5
  %22 = load i32, ptr %21, align 8
  %23 = and i32 %22, 2
  %24 = icmp ne i32 %23, 0
  br i1 %24, label %25, label %40

25:                                               ; preds = %18
  %26 = load ptr, ptr %4, align 8
  store i16 2, ptr %26, align 8
  %27 = load ptr, ptr %4, align 8
  %28 = getelementptr inbounds nuw %struct.SDL_HapticPeriodic, ptr %27, i32 0, i32 1
  %29 = getelementptr inbounds nuw %struct.SDL_HapticDirection, ptr %28, i32 0, i32 0
  store i8 1, ptr %29, align 4
  %30 = load ptr, ptr %4, align 8
  %31 = getelementptr inbounds nuw %struct.SDL_HapticPeriodic, ptr %30, i32 0, i32 6
  store i16 1000, ptr %31, align 2
  %32 = load ptr, ptr %4, align 8
  %33 = getelementptr inbounds nuw %struct.SDL_HapticPeriodic, ptr %32, i32 0, i32 7
  store i16 16384, ptr %33, align 8
  %34 = load ptr, ptr %4, align 8
  %35 = getelementptr inbounds nuw %struct.SDL_HapticPeriodic, ptr %34, i32 0, i32 2
  store i32 5000, ptr %35, align 4
  %36 = load ptr, ptr %4, align 8
  %37 = getelementptr inbounds nuw %struct.SDL_HapticPeriodic, ptr %36, i32 0, i32 10
  store i16 0, ptr %37, align 2
  %38 = load ptr, ptr %4, align 8
  %39 = getelementptr inbounds nuw %struct.SDL_HapticPeriodic, ptr %38, i32 0, i32 12
  store i16 0, ptr %39, align 2
  br label %57

40:                                               ; preds = %18
  %41 = load ptr, ptr %3, align 8
  %42 = getelementptr inbounds nuw %struct.SDL_Haptic, ptr %41, i32 0, i32 5
  %43 = load i32, ptr %42, align 8
  %44 = and i32 %43, 2048
  %45 = icmp ne i32 %44, 0
  br i1 %45, label %46, label %54

46:                                               ; preds = %40
  %47 = load ptr, ptr %4, align 8
  store i16 2048, ptr %47, align 8
  %48 = load ptr, ptr %4, align 8
  %49 = getelementptr inbounds nuw %struct.SDL_HapticLeftRight, ptr %48, i32 0, i32 1
  store i32 5000, ptr %49, align 4
  %50 = load ptr, ptr %4, align 8
  %51 = getelementptr inbounds nuw %struct.SDL_HapticLeftRight, ptr %50, i32 0, i32 2
  store i16 16384, ptr %51, align 8
  %52 = load ptr, ptr %4, align 8
  %53 = getelementptr inbounds nuw %struct.SDL_HapticLeftRight, ptr %52, i32 0, i32 3
  store i16 16384, ptr %53, align 2
  br label %56

54:                                               ; preds = %40
  %55 = call zeroext i1 (ptr, ...) @SDL_SetError_REAL(ptr noundef @.str.18)
  store i1 %55, ptr %2, align 1
  store i32 1, ptr %5, align 4
  br label %70

56:                                               ; preds = %46
  br label %57

57:                                               ; preds = %56, %25
  %58 = load ptr, ptr %3, align 8
  %59 = load ptr, ptr %3, align 8
  %60 = getelementptr inbounds nuw %struct.SDL_Haptic, ptr %59, i32 0, i32 10
  %61 = call i32 @SDL_CreateHapticEffect_REAL(ptr noundef %58, ptr noundef %60)
  %62 = load ptr, ptr %3, align 8
  %63 = getelementptr inbounds nuw %struct.SDL_Haptic, ptr %62, i32 0, i32 9
  store i32 %61, ptr %63, align 4
  %64 = load ptr, ptr %3, align 8
  %65 = getelementptr inbounds nuw %struct.SDL_Haptic, ptr %64, i32 0, i32 9
  %66 = load i32, ptr %65, align 4
  %67 = icmp sge i32 %66, 0
  br i1 %67, label %68, label %69

68:                                               ; preds = %57
  store i1 true, ptr %2, align 1
  store i32 1, ptr %5, align 4
  br label %70

69:                                               ; preds = %57
  store i1 false, ptr %2, align 1
  store i32 1, ptr %5, align 4
  br label %70

70:                                               ; preds = %69, %68, %54, %17, %10
  call void @llvm.lifetime.end.p0(i64 8, ptr %4) #7
  %71 = load i1, ptr %2, align 1
  ret i1 %71
}