; Function Attrs: nounwind uwtable
define hidden zeroext i1 @SDL_InitHapticRumble_REAL(ptr noundef %0) local_unnamed_addr #0 {
  %2 = getelementptr inbounds nuw i8, ptr %0, i64 56
  %3 = tail call zeroext i1 @SDL_ObjectValid(ptr noundef %0, i32 noundef 6) #9
  br i1 %3, label %6, label %4

4:                                                ; preds = %1
  %5 = tail call zeroext i1 (ptr, ...) @SDL_SetError_REAL(ptr noundef nonnull @.str, ptr noundef nonnull @.str.1) #9
  br label %31

6:                                                ; preds = %1
  %7 = getelementptr inbounds nuw i8, ptr %0, i64 52
  %8 = load i32, ptr %7, align 4
  %9 = icmp sgt i32 %8, -1
  br i1 %9, label %31, label %10

10:                                               ; preds = %6
  tail call void @llvm.memset.p0.i64(ptr noundef nonnull align 8 dereferenceable(72) %2, i8 0, i64 72, i1 false)
  %11 = getelementptr inbounds nuw i8, ptr %0, i64 32
  %12 = load i32, ptr %11, align 8
  %13 = and i32 %12, 2
  %.not = icmp eq i32 %13, 0
  br i1 %.not, label %20, label %14

14:                                               ; preds = %10
  store i16 2, ptr %2, align 8
  %15 = getelementptr inbounds nuw i8, ptr %0, i64 60
  store i8 1, ptr %15, align 4
  %16 = getelementptr inbounds nuw i8, ptr %0, i64 86
  store i16 1000, ptr %16, align 2
  %17 = getelementptr inbounds nuw i8, ptr %0, i64 88
  store i16 16384, ptr %17, align 8
  %18 = getelementptr inbounds nuw i8, ptr %0, i64 76
  store i32 5000, ptr %18, align 4
  %19 = getelementptr inbounds nuw i8, ptr %0, i64 94
  store i16 0, ptr %19, align 2
  br label %27

20:                                               ; preds = %10
  %21 = and i32 %12, 2048
  %.not22 = icmp eq i32 %21, 0
  br i1 %.not22, label %25, label %22

22:                                               ; preds = %20
  store i16 2048, ptr %2, align 8
  %23 = getelementptr inbounds nuw i8, ptr %0, i64 60
  store i32 5000, ptr %23, align 4
  %24 = getelementptr inbounds nuw i8, ptr %0, i64 64
  store i16 16384, ptr %24, align 8
  br label %27

25:                                               ; preds = %20
  %26 = tail call zeroext i1 (ptr, ...) @SDL_SetError_REAL(ptr noundef nonnull @.str.18) #9
  br label %31

27:                                               ; preds = %22, %14
  %.sink24 = phi i64 [ 66, %22 ], [ 98, %14 ]
  %.sink = phi i16 [ 16384, %22 ], [ 0, %14 ]
  %28 = getelementptr inbounds nuw i8, ptr %0, i64 %.sink24
  store i16 %.sink, ptr %28, align 2
  %29 = tail call i32 @SDL_CreateHapticEffect_REAL(ptr noundef nonnull %0, ptr noundef nonnull %2)
  store i32 %29, ptr %7, align 4
  %30 = icmp sgt i32 %29, -1
  br label %31

31:                                               ; preds = %27, %6, %25, %4
  %.0 = phi i1 [ %26, %25 ], [ false, %4 ], [ true, %6 ], [ %30, %27 ]
  ret i1 %.0
}